target datalayout = "e-m:e-p270:32:32-p271:32:32-p272:64:64-i64:64-i128:128-f80:128-n8:16:32:64-S128"
target triple = "x86_64-pc-linux-gnu"

%struct.Rtm_Man_t_ = type { ptr, ptr, ptr, ptr, ptr, i32, i32 }
%struct.Vec_Ptr_t_ = type { i32, i32, ptr }
%struct.Rtm_Obj_t_ = type { ptr, i32, i32, i32, i32, [0 x ptr] }

; Function Attrs: inlinehint nounwind uwtable
define internal i32 @Vec_PtrSize(ptr noundef %0) #5 {
  %2 = alloca ptr, align 8
  store ptr %0, ptr %2, align 8, !tbaa !22
  %3 = load ptr, ptr %2, align 8, !tbaa !22
  %4 = getelementptr inbounds nuw %struct.Vec_Ptr_t_, ptr %3, i32 0, i32 1
  %5 = load i32, ptr %4, align 4, !tbaa !23
  ret i32 %5
}

; Function Attrs: inlinehint nounwind uwtable
define internal ptr @Vec_PtrEntry(ptr noundef %0, i32 noundef %1) #5 {
  %3 = alloca ptr, align 8
  %4 = alloca i32, align 4
  store ptr %0, ptr %3, align 8, !tbaa !22
  store i32 %1, ptr %4, align 4, !tbaa !21
  %5 = load ptr, ptr %3, align 8, !tbaa !22
  %6 = getelementptr inbounds nuw %struct.Vec_Ptr_t_, ptr %5, i32 0, i32 2
  %7 = load ptr, ptr %6, align 8, !tbaa !26
  %8 = load i32, ptr %4, align 4, !tbaa !21
  %9 = sext i32 %8 to i64
  %10 = getelementptr inbounds ptr, ptr %7, i64 %9
  %11 = load ptr, ptr %10, align 8, !tbaa !45
  ret ptr %11
}

; Function Attrs: nounwind uwtable
define i32 @Rtm_ManMarkAutoBwd(ptr noundef %0) #0 {
  %2 = alloca ptr, align 8
  %3 = alloca ptr, align 8
  %4 = alloca i32, align 4
  %5 = alloca i32, align 4
  store ptr %0, ptr %2, align 8, !tbaa !3
  call void @llvm.lifetime.start.p0(i64 8, ptr %3) #11
  call void @llvm.lifetime.start.p0(i64 4, ptr %4) #11
  call void @llvm.lifetime.start.p0(i64 4, ptr %5) #11
  store i32 0, ptr %5, align 4, !tbaa !21
  %6 = load ptr, ptr %2, align 8, !tbaa !3
  %7 = getelementptr inbounds nuw %struct.Rtm_Man_t_, ptr %6, i32 0, i32 0
  %8 = load ptr, ptr %7, align 8, !tbaa !12
  %9 = call ptr @Vec_PtrEntry(ptr noundef %8, i32 noundef 0)
  store ptr %9, ptr %3, align 8, !tbaa !40
  %10 = load ptr, ptr %3, align 8, !tbaa !40
  %11 = getelementptr inbounds nuw %struct.Rtm_Obj_t_, ptr %10, i32 0, i32 1
  %12 = load i32, ptr %11, align 8
  %13 = and i32 %12, -17
  %14 = or i32 %13, 16
  store i32 %14, ptr %11, align 8
  store i32 0, ptr %4, align 4, !tbaa !21
  br label %15

15:                                               ; preds = %36, %1
  %16 = load i32, ptr %4, align 4, !tbaa !21
  %17 = load ptr, ptr %2, align 8, !tbaa !3
  %18 = getelementptr inbounds nuw %struct.Rtm_Man_t_, ptr %17, i32 0, i32 1
  %19 = load ptr, ptr %18, align 8, !tbaa !18
  %20 = call i32 @Vec_PtrSize(ptr noundef %19)
  %21 = icmp slt i32 %16, %20
  br i1 %21, label %22, label %28

22:                                               ; preds = %15
  %23 = load ptr, ptr %2, align 8, !tbaa !3
  %24 = getelementptr inbounds nuw %struct.Rtm_Man_t_, ptr %23, i32 0, i32 1
  %25 = load ptr, ptr %24, align 8, !tbaa !18
  %26 = load i32, ptr %4, align 4, !tbaa !21
  %27 = call ptr @Vec_PtrEntry(ptr noundef %25, i32 noundef %26)
  store ptr %27, ptr %3, align 8, !tbaa !40
  br label %28

28:                                               ; preds = %22, %15
  %29 = phi i1 [ false, %15 ], [ true, %22 ]
  br i1 %29, label %30, label %39

30:                                               ; preds = %28
  %31 = load ptr, ptr %3, align 8, !tbaa !40
  %32 = getelementptr inbounds nuw %struct.Rtm_Obj_t_, ptr %31, i32 0, i32 1
  %33 = load i32, ptr %32, align 8
  %34 = and i32 %33, -17
  %35 = or i32 %34, 16
  store i32 %35, ptr %32, align 8
  br label %36

36:                                               ; preds = %30
  %37 = load i32, ptr %4, align 4, !tbaa !21
  %38 = add nsw i32 %37, 1
  store i32 %38, ptr %4, align 4, !tbaa !21
  br label %15, !llvm.loop !62

39:                                               ; preds = %28
  store i32 0, ptr %4, align 4, !tbaa !21
  br label %40

40:                                               ; preds = %57, %39
  %41 = load i32, ptr %4, align 4, !tbaa !21
  %42 = load ptr, ptr %2, align 8, !tbaa !3
  %43 = getelementptr inbounds nuw %struct.Rtm_Man_t_, ptr %42, i32 0, i32 2
  %44 = load ptr, ptr %43, align 8, !tbaa !19
  %45 = call i32 @Vec_PtrSize(ptr noundef %44)
  %46 = icmp slt i32 %41, %45
  br i1 %46, label %47, label %53

47:                                               ; preds = %40
  %48 = load ptr, ptr %2, align 8, !tbaa !3
  %49 = getelementptr inbounds nuw %struct.Rtm_Man_t_, ptr %48, i32 0, i32 2
  %50 = load ptr, ptr %49, align 8, !tbaa !19
  %51 = load i32, ptr %4, align 4, !tbaa !21
  %52 = call ptr @Vec_PtrEntry(ptr noundef %50, i32 noundef %51)
  store ptr %52, ptr %3, align 8, !tbaa !40
  br label %53

53:                                               ; preds = %47, %40
  %54 = phi i1 [ false, %40 ], [ true, %47 ]
  br i1 %54, label %55, label %60

55:                                               ; preds = %53
  %56 = load ptr, ptr %3, align 8, !tbaa !40
  call void @Rtm_ObjMarkAutoBwd_rec(ptr noundef %56)
  br label %57

57:                                               ; preds = %55
  %58 = load i32, ptr %4, align 4, !tbaa !21
  %59 = add nsw i32 %58, 1
  store i32 %59, ptr %4, align 4, !tbaa !21
  br label %40, !llvm.loop !63

60:                                               ; preds = %53
  store i32 0, ptr %4, align 4, !tbaa !21
  br label %61

61:                                               ; preds = %104, %60
  %62 = load i32, ptr %4, align 4, !tbaa !21
  %63 = load ptr, ptr %2, align 8, !tbaa !3
  %64 = getelementptr inbounds nuw %struct.Rtm_Man_t_, ptr %63, i32 0, i32 0
  %65 = load ptr, ptr %64, align 8, !tbaa !12
  %66 = call i32 @Vec_PtrSize(ptr noundef %65)
  %67 = icmp slt i32 %62, %66
  br i1 %67, label %68, label %74

68:                                               ; preds = %61
  %69 = load ptr, ptr %2, align 8, !tbaa !3
  %70 = getelementptr inbounds nuw %struct.Rtm_Man_t_, ptr %69, i32 0, i32 0
  %71 = load ptr, ptr %70, align 8, !tbaa !12
  %72 = load i32, ptr %4, align 4, !tbaa !21
  %73 = call ptr @Vec_PtrEntry(ptr noundef %71, i32 noundef %72)
  store ptr %73, ptr %3, align 8, !tbaa !40
  br label %74

74:                                               ; preds = %68, %61
  %75 = phi i1 [ false, %61 ], [ true, %68 ]
  br i1 %75, label %76, label %107

76:                                               ; preds = %74
  %77 = load ptr, ptr %3, align 8, !tbaa !40
  %78 = getelementptr inbounds nuw %struct.Rtm_Obj_t_, ptr %77, i32 0, i32 1
  %79 = load i32, ptr %78, align 8
  %80 = lshr i32 %79, 4
  %81 = and i32 %80, 1
  %82 = zext i32 %81 to i64
  %83 = icmp ne i64 %82, 0
  %84 = xor i1 %83, true
  %85 = zext i1 %84 to i32
  %86 = sext i32 %85 to i64
  %87 = load ptr, ptr %3, align 8, !tbaa !40
  %88 = getelementptr inbounds nuw %struct.Rtm_Obj_t_, ptr %87, i32 0, i32 1
  %89 = trunc i64 %86 to i32
  %90 = load i32, ptr %88, align 8
  %91 = and i32 %89, 1
  %92 = shl i32 %91, 4
  %93 = and i32 %90, -17
  %94 = or i32 %93, %92
  store i32 %94, ptr %88, align 8
  %95 = load ptr, ptr %3, align 8, !tbaa !40
  %96 = getelementptr inbounds nuw %struct.Rtm_Obj_t_, ptr %95, i32 0, i32 1
  %97 = load i32, ptr %96, align 8
  %98 = lshr i32 %97, 4
  %99 = and i32 %98, 1
  %100 = zext i32 %99 to i64
  %101 = trunc i64 %100 to i32
  %102 = load i32, ptr %5, align 4, !tbaa !21
  %103 = add nsw i32 %102, %101
  store i32 %103, ptr %5, align 4, !tbaa !21
  br label %104

104:                                              ; preds = %76
  %105 = load i32, ptr %4, align 4, !tbaa !21
  %106 = add nsw i32 %105, 1
  store i32 %106, ptr %4, align 4, !tbaa !21
  br label %61, !llvm.loop !64

107:                                              ; preds = %74
  %108 = load i32, ptr %5, align 4, !tbaa !21
  call void @llvm.lifetime.end.p0(i64 4, ptr %5) #11
  call void @llvm.lifetime.end.p0(i64 4, ptr %4) #11
  call void @llvm.lifetime.end.p0(i64 8, ptr %3) #11
  ret i32 %108
}