; Function Attrs: nofree nosync nounwind memory(readwrite, inaccessiblemem: none) uwtable
define i32 @Rtm_ManMarkAutoBwd(ptr noundef readonly captures(none) %0) local_unnamed_addr #11 {
  %2 = load ptr, ptr %0, align 8, !tbaa !26
  %3 = getelementptr i8, ptr %2, i64 8
  %.val33 = load ptr, ptr %3, align 8, !tbaa !25
  %4 = load ptr, ptr %.val33, align 8, !tbaa !34
  %5 = getelementptr inbounds nuw i8, ptr %4, i64 8
  %6 = load i32, ptr %5, align 8
  %7 = or i32 %6, 16
  store i32 %7, ptr %5, align 8
  %8 = getelementptr inbounds nuw i8, ptr %0, i64 8
  %9 = load ptr, ptr %8, align 8, !tbaa !30
  %10 = getelementptr i8, ptr %9, i64 4
  %.val2934 = load i32, ptr %10, align 4, !tbaa !22
  %11 = icmp sgt i32 %.val2934, 0
  br i1 %11, label %.lr.ph, label %.critedge.preheader

.critedge.preheader:                              ; preds = %.lr.ph, %1
  %12 = getelementptr inbounds nuw i8, ptr %0, i64 16
  %13 = load ptr, ptr %12, align 8, !tbaa !31
  %14 = getelementptr i8, ptr %13, i64 4
  %.val2836 = load i32, ptr %14, align 4, !tbaa !22
  %15 = icmp sgt i32 %.val2836, 0
  br i1 %15, label %.critedge, label %.critedge2.preheader

.lr.ph:                                           ; preds = %1, %.lr.ph
  %indvars.iv = phi i64 [ %indvars.iv.next, %.lr.ph ], [ 0, %1 ]
  %16 = phi ptr [ %23, %.lr.ph ], [ %9, %1 ]
  %17 = getelementptr i8, ptr %16, i64 8
  %.val32 = load ptr, ptr %17, align 8, !tbaa !25
  %18 = getelementptr inbounds nuw ptr, ptr %.val32, i64 %indvars.iv
  %19 = load ptr, ptr %18, align 8, !tbaa !34
  %20 = getelementptr inbounds nuw i8, ptr %19, i64 8
  %21 = load i32, ptr %20, align 8
  %22 = or i32 %21, 16
  store i32 %22, ptr %20, align 8
  %indvars.iv.next = add nuw nsw i64 %indvars.iv, 1
  %23 = load ptr, ptr %8, align 8, !tbaa !30
  %24 = getelementptr i8, ptr %23, i64 4
  %.val29 = load i32, ptr %24, align 4, !tbaa !22
  %25 = sext i32 %.val29 to i64
  %26 = icmp slt i64 %indvars.iv.next, %25
  br i1 %26, label %.lr.ph, label %.critedge.preheader, !llvm.loop !58

.critedge2.preheader:                             ; preds = %.critedge, %.critedge.preheader
  %27 = load ptr, ptr %0, align 8, !tbaa !26
  %28 = getelementptr i8, ptr %27, i64 4
  %.val39 = load i32, ptr %28, align 4, !tbaa !22
  %29 = icmp sgt i32 %.val39, 0
  br i1 %29, label %.critedge2, label %.critedge4

.critedge:                                        ; preds = %.critedge.preheader, %.critedge
  %indvars.iv46 = phi i64 [ %indvars.iv.next47, %.critedge ], [ 0, %.critedge.preheader ]
  %30 = phi ptr [ %34, %.critedge ], [ %13, %.critedge.preheader ]
  %31 = getelementptr i8, ptr %30, i64 8
  %.val31 = load ptr, ptr %31, align 8, !tbaa !25
  %32 = getelementptr inbounds nuw ptr, ptr %.val31, i64 %indvars.iv46
  %33 = load ptr, ptr %32, align 8, !tbaa !34
  tail call void @Rtm_ObjMarkAutoBwd_rec(ptr noundef %33)
  %indvars.iv.next47 = add nuw nsw i64 %indvars.iv46, 1
  %34 = load ptr, ptr %12, align 8, !tbaa !31
  %35 = getelementptr i8, ptr %34, i64 4
  %.val28 = load i32, ptr %35, align 4, !tbaa !22
  %36 = sext i32 %.val28 to i64
  %37 = icmp slt i64 %indvars.iv.next47, %36
  br i1 %37, label %.critedge, label %.critedge2.preheader, !llvm.loop !59

.critedge2:                                       ; preds = %.critedge2.preheader, %.critedge2
  %indvars.iv49 = phi i64 [ %indvars.iv.next50, %.critedge2 ], [ 0, %.critedge2.preheader ]
  %38 = phi ptr [ %48, %.critedge2 ], [ %27, %.critedge2.preheader ]
  %.041 = phi i32 [ %47, %.critedge2 ], [ 0, %.critedge2.preheader ]
  %39 = getelementptr i8, ptr %38, i64 8
  %.val30 = load ptr, ptr %39, align 8, !tbaa !25
  %40 = getelementptr inbounds nuw ptr, ptr %.val30, i64 %indvars.iv49
  %41 = load ptr, ptr %40, align 8, !tbaa !34
  %42 = getelementptr inbounds nuw i8, ptr %41, i64 8
  %43 = load i32, ptr %42, align 8
  %44 = xor i32 %43, 16
  store i32 %44, ptr %42, align 8
  %45 = lshr i32 %44, 4
  %46 = and i32 %45, 1
  %47 = add nuw nsw i32 %46, %.041
  %indvars.iv.next50 = add nuw nsw i64 %indvars.iv49, 1
  %48 = load ptr, ptr %0, align 8, !tbaa !26
  %49 = getelementptr i8, ptr %48, i64 4
  %.val = load i32, ptr %49, align 4, !tbaa !22
  %50 = sext i32 %.val to i64
  %51 = icmp slt i64 %indvars.iv.next50, %50
  br i1 %51, label %.critedge2, label %.critedge4, !llvm.loop !60

.critedge4:                                       ; preds = %.critedge2, %.critedge2.preheader
  %.0.lcssa = phi i32 [ 0, %.critedge2.preheader ], [ %47, %.critedge2 ]
  ret i32 %.0.lcssa
}